#include <math.h>
#include <stdio.h>
#include <stdlib.h>
#include <string.h>
#define ASCII 100
#define MAX_N 100
#define MAX_M 100
#define ASC 100
#define null 0
#define Len 100
#define SUM 100
#define NUMBER 100
#define SIZE 100
#define MAXN 100
#define MAXSIZE 100
#define maxrow 100
#define maxcol 100
#define mx 100
#define NUM 100
#define ROW 100
#define COL 100
#define SIZEE 100
#define MAX_LEN 100
#define LIU 100
#define maxsize 100
#define NUM 100
#define NO 100
#define Null 0
#define ID_DIGITS 100
#define INT_MAX 100
#define INT_MIN 100
#define FALSE 0
#define TRUE 1
#define hang 100
#define lie 100
#define lll 100
#define LEM 100
#define K 100
#define INF 100
#define MONTH 12
#define true 1
#define PI 100
#define maxlen 100
#define maxinputint 100
#define STUDENT_NUM 100
#define TOTAL 100
#define LEN1 100
#define student_num 100
#define MAXLEN 100
#define MAXL 100
#define nMax 100
#define Vocabularysize 100
#define Sentencelength 100
#define LENGTH 100
#define ARRAY 100
#define len 100
#define j 100
#define tsuhu 100
#define l 100
#define p 100
#define h 100
#define maxn 100
#define MAXLENGTH 100
#define SEX 100

int main()
{
    struct ss{
		int num,yu,sh;
		int sum;
	};
	int n,i;
	struct ss *stu;
	
	scanf("%d",&n);
	stu=(struct ss *)malloc(sizeof(struct ss)*n);
	for(i=0;i<n;i++)
	{int num1,yu1,sh1;
	(stu+i)->num=0;
	(stu+i)->yu=0;
	(stu+i)->sh=0;
	(stu+i)->sum=0;
	scanf("%d %d %d",&num1,&yu1,&sh1);
    (stu+i)->num=num1;
	(stu+i)->yu=yu1;
	(stu+i)->sh=sh1;
    (stu+i)->sum=yu1+sh1;
	}
	for(i=1;i<n;i++)
	{int t;
	if((stu+0)->sum<(stu+i)->sum)
	{t=(stu+0)->sum;
     (stu+0)->sum=(stu+i)->sum;
	 (stu+i)->sum=t;
	 t=(stu+0)->num;
	 (stu+0)->num=(stu+i)->num;
	 (stu+i)->num=t;}}
	for(i=2;i<n;i++)
	{int t;
	if((stu+1)->sum<(stu+i)->sum)
	{t=(stu+1)->sum;
     (stu+1)->sum=(stu+i)->sum;
	 (stu+i)->sum=t;
	 t=(stu+1)->num;
	 (stu+1)->num=(stu+i)->num;
	 (stu+i)->num=t;}}
	for(i=3;i<n;i++)
	{int t;
	if((stu+2)->sum<(stu+i)->sum)
	{t=(stu+2)->sum;
     (stu+2)->sum=(stu+i)->sum;
	 (stu+i)->sum=t;
	 t=(stu+2)->num;
	 (stu+2)->num=(stu+i)->num;
	 (stu+i)->num=t;}}
	for(i=0;i<3;i++)
	{	printf("%d %d\n",(stu+i)->num,(stu+i)->sum);}
    free(stu);
	return 0;
}


	
